; Function Attrs: nounwind uwtable
define i32 @Gia_ManFindSharedNode(ptr noundef %0, ptr noundef captures(none) %1, i32 noundef %2) local_unnamed_addr #0 {
  %4 = getelementptr i8, ptr %1, i64 4
  %.val35 = load i32, ptr %4, align 4, !tbaa !3
  %5 = getelementptr i8, ptr %1, i64 8
  %.val36 = load ptr, ptr %5, align 8, !tbaa !10
  %6 = sext i32 %.val35 to i64
  %7 = getelementptr i32, ptr %.val36, i64 %6
  %8 = getelementptr i8, ptr %7, i64 -4
  %9 = load i32, ptr %8, align 4, !tbaa !11
  %10 = ashr i32 %9, 1
  %11 = getelementptr i8, ptr %0, i64 160
  %.val37 = load ptr, ptr %11, align 8, !tbaa !38
  %12 = add nsw i32 %10, 1
  %13 = getelementptr inbounds nuw i8, ptr %.val37, i64 4
  %14 = load i32, ptr %13, align 4, !tbaa !3
  %.not.i.not.i.i = icmp slt i32 %10, %14
  br i1 %.not.i.not.i.i, label %Gia_ObjLevelId.exit, label %15

15:                                               ; preds = %3
  %16 = load i32, ptr %.val37, align 8, !tbaa !14
  %17 = shl nsw i32 %16, 1
  %.not.i.i = icmp slt i32 %10, %17
  %.not.i.i.not.i.i = icmp sgt i32 %16, %10
  br i1 %.not.i.i, label %30, label %18

18:                                               ; preds = %15
  br i1 %.not.i.i.not.i.i, label %Vec_IntGrow.exit.i.i.i, label %19

19:                                               ; preds = %18
  %20 = getelementptr inbounds nuw i8, ptr %.val37, i64 8
  %21 = load ptr, ptr %20, align 8, !tbaa !10
  %.not9.i.i.i.i = icmp eq ptr %21, null
  %22 = sext i32 %12 to i64
  %23 = shl nsw i64 %22, 2
  br i1 %.not9.i.i.i.i, label %26, label %24

24:                                               ; preds = %19
  %25 = tail call ptr @realloc(ptr noundef nonnull %21, i64 noundef %23) #25
  br label %28

26:                                               ; preds = %19
  %27 = tail call noalias ptr @malloc(i64 noundef %23) #26
  br label %28

28:                                               ; preds = %26, %24
  %29 = phi ptr [ %25, %24 ], [ %27, %26 ]
  store ptr %29, ptr %20, align 8, !tbaa !10
  br label %Vec_IntGrow.exit.sink.split.i.i.i

30:                                               ; preds = %15
  br i1 %.not.i.i.not.i.i, label %Vec_IntGrow.exit.i.i.i, label %31

31:                                               ; preds = %30
  %32 = getelementptr inbounds nuw i8, ptr %.val37, i64 8
  %33 = load ptr, ptr %32, align 8, !tbaa !10
  %.not9.i21.i.i.i = icmp eq ptr %33, null
  %34 = sext i32 %17 to i64
  %35 = shl nsw i64 %34, 2
  br i1 %.not9.i21.i.i.i, label %38, label %36

36:                                               ; preds = %31
  %37 = tail call ptr @realloc(ptr noundef nonnull %33, i64 noundef %35) #25
  br label %40

38:                                               ; preds = %31
  %39 = tail call noalias ptr @malloc(i64 noundef %35) #26
  br label %40

40:                                               ; preds = %38, %36
  %41 = phi ptr [ %37, %36 ], [ %39, %38 ]
  store ptr %41, ptr %32, align 8, !tbaa !10
  br label %Vec_IntGrow.exit.sink.split.i.i.i

Vec_IntGrow.exit.sink.split.i.i.i:                ; preds = %40, %28
  %.sink.i.i.i = phi i32 [ %17, %40 ], [ %12, %28 ]
  store i32 %.sink.i.i.i, ptr %.val37, align 8, !tbaa !14
  %.pre.i.i = load i32, ptr %13, align 4, !tbaa !3
  br label %Vec_IntGrow.exit.i.i.i

Vec_IntGrow.exit.i.i.i:                           ; preds = %Vec_IntGrow.exit.sink.split.i.i.i, %30, %18
  %42 = phi i32 [ %.pre.i.i, %Vec_IntGrow.exit.sink.split.i.i.i ], [ %14, %30 ], [ %14, %18 ]
  %.not3.i.i = icmp sgt i32 %42, %10
  br i1 %.not3.i.i, label %._crit_edge.i.i.i, label %.lr.ph.i.i.i

.lr.ph.i.i.i:                                     ; preds = %Vec_IntGrow.exit.i.i.i
  %43 = getelementptr inbounds nuw i8, ptr %.val37, i64 8
  %44 = load ptr, ptr %43, align 8, !tbaa !10
  %45 = sext i32 %42 to i64
  %wide.trip.count.i.i.i = sext i32 %12 to i64
  %46 = shl nsw i64 %45, 2
  %scevgep.i.i = getelementptr i8, ptr %44, i64 %46
  %47 = sub nsw i64 %wide.trip.count.i.i.i, %45
  %48 = shl nsw i64 %47, 2
  tail call void @llvm.memset.p0.i64(ptr align 4 %scevgep.i.i, i8 0, i64 %48, i1 false), !tbaa !11
  br label %._crit_edge.i.i.i

._crit_edge.i.i.i:                                ; preds = %.lr.ph.i.i.i, %Vec_IntGrow.exit.i.i.i
  store i32 %12, ptr %13, align 4, !tbaa !3
  %.val31.pre = load i32, ptr %4, align 4, !tbaa !3
  br label %Gia_ObjLevelId.exit

Gia_ObjLevelId.exit:                              ; preds = %3, %._crit_edge.i.i.i
  %.val31 = phi i32 [ %.val35, %3 ], [ %.val31.pre, %._crit_edge.i.i.i ]
  %49 = getelementptr i8, ptr %.val37, i64 8
  %.val.i.i = load ptr, ptr %49, align 8, !tbaa !10
  %50 = sext i32 %10 to i64
  %51 = getelementptr inbounds i32, ptr %.val.i.i, i64 %50
  %52 = load i32, ptr %51, align 4, !tbaa !11
  %53 = ashr i32 %2, 1
  %54 = zext i32 %.val31 to i64
  br label %55

55:                                               ; preds = %105, %Gia_ObjLevelId.exit
  %indvars.iv = phi i64 [ %56, %105 ], [ %54, %Gia_ObjLevelId.exit ]
  %56 = add nsw i64 %indvars.iv, -1
  %57 = trunc nuw i64 %indvars.iv to i32
  %58 = icmp sgt i32 %57, 0
  %.pre.pre64 = load ptr, ptr %5, align 8, !tbaa !10
  br i1 %58, label %59, label %.thread

59:                                               ; preds = %55
  %60 = getelementptr inbounds nuw i32, ptr %.pre.pre64, i64 %56
  %61 = load i32, ptr %60, align 4, !tbaa !11
  %62 = ashr i32 %61, 1
  %.val38 = load ptr, ptr %11, align 8, !tbaa !38
  %63 = add nsw i32 %62, 1
  %64 = getelementptr inbounds nuw i8, ptr %.val38, i64 4
  %65 = load i32, ptr %64, align 4, !tbaa !3
  %.not.i.not.i.i39 = icmp slt i32 %62, %65
  br i1 %.not.i.not.i.i39, label %Gia_ObjLevelId.exit54, label %66

66:                                               ; preds = %59
  %67 = load i32, ptr %.val38, align 8, !tbaa !14
  %68 = shl nsw i32 %67, 1
  %.not.i.i40 = icmp slt i32 %62, %68
  %.not.i.i.not.i.i41 = icmp sgt i32 %67, %62
  br i1 %.not.i.i40, label %81, label %69

69:                                               ; preds = %66
  br i1 %.not.i.i.not.i.i41, label %Vec_IntGrow.exit.i.i.i46, label %70

70:                                               ; preds = %69
  %71 = getelementptr inbounds nuw i8, ptr %.val38, i64 8
  %72 = load ptr, ptr %71, align 8, !tbaa !10
  %.not9.i.i.i.i42 = icmp eq ptr %72, null
  %73 = sext i32 %63 to i64
  %74 = shl nsw i64 %73, 2
  br i1 %.not9.i.i.i.i42, label %77, label %75

75:                                               ; preds = %70
  %76 = tail call ptr @realloc(ptr noundef nonnull %72, i64 noundef %74) #25
  br label %79

77:                                               ; preds = %70
  %78 = tail call noalias ptr @malloc(i64 noundef %74) #26
  br label %79

79:                                               ; preds = %77, %75
  %80 = phi ptr [ %76, %75 ], [ %78, %77 ]
  store ptr %80, ptr %71, align 8, !tbaa !10
  br label %Vec_IntGrow.exit.sink.split.i.i.i43

81:                                               ; preds = %66
  br i1 %.not.i.i.not.i.i41, label %Vec_IntGrow.exit.i.i.i46, label %82

82:                                               ; preds = %81
  %83 = getelementptr inbounds nuw i8, ptr %.val38, i64 8
  %84 = load ptr, ptr %83, align 8, !tbaa !10
  %.not9.i21.i.i.i53 = icmp eq ptr %84, null
  %85 = sext i32 %68 to i64
  %86 = shl nsw i64 %85, 2
  br i1 %.not9.i21.i.i.i53, label %89, label %87

87:                                               ; preds = %82
  %88 = tail call ptr @realloc(ptr noundef nonnull %84, i64 noundef %86) #25
  br label %91

89:                                               ; preds = %82
  %90 = tail call noalias ptr @malloc(i64 noundef %86) #26
  br label %91

91:                                               ; preds = %89, %87
  %92 = phi ptr [ %88, %87 ], [ %90, %89 ]
  store ptr %92, ptr %83, align 8, !tbaa !10
  br label %Vec_IntGrow.exit.sink.split.i.i.i43

Vec_IntGrow.exit.sink.split.i.i.i43:              ; preds = %91, %79
  %.sink.i.i.i44 = phi i32 [ %68, %91 ], [ %63, %79 ]
  store i32 %.sink.i.i.i44, ptr %.val38, align 8, !tbaa !14
  %.pre.i.i45 = load i32, ptr %64, align 4, !tbaa !3
  br label %Vec_IntGrow.exit.i.i.i46

Vec_IntGrow.exit.i.i.i46:                         ; preds = %Vec_IntGrow.exit.sink.split.i.i.i43, %81, %69
  %93 = phi i32 [ %.pre.i.i45, %Vec_IntGrow.exit.sink.split.i.i.i43 ], [ %65, %81 ], [ %65, %69 ]
  %.not3.i.i47 = icmp sgt i32 %93, %62
  br i1 %.not3.i.i47, label %._crit_edge.i.i.i51, label %.lr.ph.i.i.i48

.lr.ph.i.i.i48:                                   ; preds = %Vec_IntGrow.exit.i.i.i46
  %94 = getelementptr inbounds nuw i8, ptr %.val38, i64 8
  %95 = load ptr, ptr %94, align 8, !tbaa !10
  %96 = sext i32 %93 to i64
  %wide.trip.count.i.i.i49 = sext i32 %63 to i64
  %97 = shl nsw i64 %96, 2
  %scevgep.i.i50 = getelementptr i8, ptr %95, i64 %97
  %98 = sub nsw i64 %wide.trip.count.i.i.i49, %96
  %99 = shl nsw i64 %98, 2
  tail call void @llvm.memset.p0.i64(ptr align 4 %scevgep.i.i50, i8 0, i64 %99, i1 false), !tbaa !11
  br label %._crit_edge.i.i.i51

._crit_edge.i.i.i51:                              ; preds = %.lr.ph.i.i.i48, %Vec_IntGrow.exit.i.i.i46
  store i32 %63, ptr %64, align 4, !tbaa !3
  br label %Gia_ObjLevelId.exit54

Gia_ObjLevelId.exit54:                            ; preds = %59, %._crit_edge.i.i.i51
  %100 = getelementptr i8, ptr %.val38, i64 8
  %.val.i.i52 = load ptr, ptr %100, align 8, !tbaa !10
  %101 = sext i32 %62 to i64
  %102 = getelementptr inbounds i32, ptr %.val.i.i52, i64 %101
  %103 = load i32, ptr %102, align 4, !tbaa !11
  %.not = icmp eq i32 %52, %103
  br i1 %.not, label %104, label %Gia_ObjLevelId.exit54..thread.loopexit_crit_edge

Gia_ObjLevelId.exit54..thread.loopexit_crit_edge: ; preds = %Gia_ObjLevelId.exit54
  %.pre.pre = load ptr, ptr %5, align 8, !tbaa !10
  br label %.thread

104:                                              ; preds = %Gia_ObjLevelId.exit54
  %.not28 = icmp eq i32 %53, %62
  br i1 %.not28, label %107, label %105

105:                                              ; preds = %104
  %106 = tail call i32 @Gia_ManHashLookupInt(ptr noundef nonnull %0, i32 noundef %2, i32 noundef %61) #27
  %.not29 = icmp eq i32 %106, 0
  br i1 %.not29, label %55, label %107

107:                                              ; preds = %105, %104
  %.not30 = icmp eq i32 %61, %9
  %.pre63 = load ptr, ptr %5, align 8, !tbaa !10
  br i1 %.not30, label %.thread, label %108

108:                                              ; preds = %107
  %109 = getelementptr inbounds nuw i32, ptr %.pre63, i64 %56
  store i32 %9, ptr %109, align 4, !tbaa !11
  %.val = load i32, ptr %4, align 4, !tbaa !3
  %110 = sext i32 %.val to i64
  %111 = getelementptr i32, ptr %.pre63, i64 %110
  %112 = getelementptr i8, ptr %111, i64 -4
  store i32 %61, ptr %112, align 4, !tbaa !11
  br label %.thread

.thread:                                          ; preds = %55, %Gia_ObjLevelId.exit54..thread.loopexit_crit_edge, %107, %108
  %113 = phi ptr [ %.pre63, %107 ], [ %.pre63, %108 ], [ %.pre.pre, %Gia_ObjLevelId.exit54..thread.loopexit_crit_edge ], [ %.pre.pre64, %55 ]
  %114 = load i32, ptr %4, align 4, !tbaa !3
  %115 = add nsw i32 %114, -1
  store i32 %115, ptr %4, align 4, !tbaa !3
  %116 = sext i32 %115 to i64
  %117 = getelementptr inbounds i32, ptr %113, i64 %116
  %118 = load i32, ptr %117, align 4, !tbaa !11
  ret i32 %118
}